target datalayout = "e-m:e-p270:32:32-p271:32:32-p272:64:64-i64:64-i128:128-f80:128-n8:16:32:64-S128"
target triple = "x86_64-pc-linux-gnu"

@.str = private unnamed_addr constant [34 x i8] c"../openssl/crypto/cms/cms_smime.c\00", align 1
@__func__.CMS_data = private unnamed_addr constant [9 x i8] c"CMS_data\00", align 1

; Function Attrs: nounwind uwtable
define i32 @CMS_data(ptr noundef %0, ptr noundef %1, i32 noundef %2) #0 {
  %4 = alloca i32, align 4
  %5 = alloca ptr, align 8
  %6 = alloca ptr, align 8
  %7 = alloca i32, align 4
  %8 = alloca ptr, align 8
  %9 = alloca i32, align 4
  %10 = alloca i32, align 4
  store ptr %0, ptr %5, align 8, !tbaa !3
  store ptr %1, ptr %6, align 8, !tbaa !8
  store i32 %2, ptr %7, align 4, !tbaa !10
  call void @llvm.lifetime.start.p0(i64 8, ptr %8) #4
  call void @llvm.lifetime.start.p0(i64 4, ptr %9) #4
  %11 = load ptr, ptr %5, align 8, !tbaa !3
  %12 = call ptr @CMS_get0_type(ptr noundef %11)
  %13 = call i32 @OBJ_obj2nid(ptr noundef %12)
  %14 = icmp ne i32 %13, 21
  br i1 %14, label %15, label %16

15:                                               ; preds = %3
  call void @ERR_new()
  call void @ERR_set_debug(ptr noundef @.str, i32 noundef 111, ptr noundef @__func__.CMS_data)
  call void (i32, i32, ptr, ...) @ERR_set_error(i32 noundef 46, i32 noundef 143, ptr noundef null)
  store i32 0, ptr %4, align 4
  store i32 1, ptr %10, align 4
  br label %29

16:                                               ; preds = %3
  %17 = load ptr, ptr %5, align 8, !tbaa !3
  %18 = call ptr @CMS_dataInit(ptr noundef %17, ptr noundef null)
  store ptr %18, ptr %8, align 8, !tbaa !8
  %19 = load ptr, ptr %8, align 8, !tbaa !8
  %20 = icmp eq ptr %19, null
  br i1 %20, label %21, label %22

21:                                               ; preds = %16
  store i32 0, ptr %4, align 4
  store i32 1, ptr %10, align 4
  br label %29

22:                                               ; preds = %16
  %23 = load ptr, ptr %6, align 8, !tbaa !8
  %24 = load ptr, ptr %8, align 8, !tbaa !8
  %25 = load i32, ptr %7, align 4, !tbaa !10
  %26 = call i32 @cms_copy_content(ptr noundef %23, ptr noundef %24, i32 noundef %25)
  store i32 %26, ptr %9, align 4, !tbaa !10
  %27 = load ptr, ptr %8, align 8, !tbaa !8
  call void @BIO_free_all(ptr noundef %27)
  %28 = load i32, ptr %9, align 4, !tbaa !10
  store i32 %28, ptr %4, align 4
  store i32 1, ptr %10, align 4
  br label %29

29:                                               ; preds = %22, %21, %15
  call void @llvm.lifetime.end.p0(i64 4, ptr %9) #4
  call void @llvm.lifetime.end.p0(i64 8, ptr %8) #4
  %30 = load i32, ptr %4, align 4
  ret i32 %30
}