; Function Attrs: nounwind uwtable
define range(i32 0, 2) i32 @CMS_data(ptr noundef %0, ptr noundef %1, i32 noundef %2) local_unnamed_addr #0 {
  %4 = tail call ptr @CMS_get0_type(ptr noundef %0) #4
  %5 = tail call i32 @OBJ_obj2nid(ptr noundef %4) #4
  %.not = icmp eq i32 %5, 21
  br i1 %.not, label %7, label %6

6:                                                ; preds = %3
  tail call void @ERR_new() #4
  tail call void @ERR_set_debug(ptr noundef nonnull @.str, i32 noundef 111, ptr noundef nonnull @__func__.CMS_data) #4
  tail call void (i32, i32, ptr, ...) @ERR_set_error(i32 noundef 46, i32 noundef 143, ptr noundef null) #4
  br label %12

7:                                                ; preds = %3
  %8 = tail call ptr @CMS_dataInit(ptr noundef %0, ptr noundef null) #4
  %9 = icmp eq ptr %8, null
  br i1 %9, label %12, label %10

10:                                               ; preds = %7
  %11 = tail call fastcc i32 @cms_copy_content(ptr noundef %1, ptr noundef %8, i32 noundef %2)
  tail call void @BIO_free_all(ptr noundef nonnull %8) #4
  br label %12

12:                                               ; preds = %7, %10, %6
  %.0 = phi i32 [ 0, %6 ], [ %11, %10 ], [ 0, %7 ]
  ret i32 %.0
}